target datalayout = "e-m:e-p270:32:32-p271:32:32-p272:64:64-i64:64-i128:128-f80:128-n8:16:32:64-S128"
target triple = "x86_64-pc-linux-gnu"

%struct.OnigCalloutArgsStruct = type { i32, i32, i32, ptr, ptr, ptr, ptr, ptr, ptr, i64, ptr, ptr, ptr, ptr, ptr }
%union.OnigValue = type { %struct.anon.0 }
%struct.anon.0 = type { ptr, ptr }
%struct.CalloutListEntry = type { i32, i32, i32, i32, ptr, ptr, i32, ptr, ptr, %union.anon }
%union.anon = type { %struct.anon.2 }
%struct.anon.2 = type { i32, i32, [4 x i32], [4 x %union.OnigValue] }
%struct.anon.1 = type { ptr, ptr }

; Function Attrs: nounwind uwtable
define dso_local ptr @onig_get_contents_by_callout_args(ptr noundef %0) #0 {
  %2 = alloca ptr, align 8
  %3 = alloca ptr, align 8
  %4 = alloca i32, align 4
  %5 = alloca ptr, align 8
  %6 = alloca i32, align 4
  store ptr %0, ptr %3, align 8, !tbaa !45
  call void @llvm.lifetime.start.p0(i64 4, ptr %4) #9
  call void @llvm.lifetime.start.p0(i64 8, ptr %5) #9
  %7 = load ptr, ptr %3, align 8, !tbaa !45
  %8 = getelementptr inbounds nuw %struct.OnigCalloutArgsStruct, ptr %7, i32 0, i32 2
  %9 = load i32, ptr %8, align 8, !tbaa !54
  store i32 %9, ptr %4, align 4, !tbaa !9
  %10 = load ptr, ptr %3, align 8, !tbaa !45
  %11 = getelementptr inbounds nuw %struct.OnigCalloutArgsStruct, ptr %10, i32 0, i32 3
  %12 = load ptr, ptr %11, align 8, !tbaa !61
  %13 = load i32, ptr %4, align 4, !tbaa !9
  %14 = call ptr @onig_reg_callout_list_at(ptr noundef %12, i32 noundef %13)
  store ptr %14, ptr %5, align 8, !tbaa !17
  %15 = load ptr, ptr %5, align 8, !tbaa !17
  %16 = icmp eq ptr %15, null
  br i1 %16, label %17, label %18

17:                                               ; preds = %1
  store ptr null, ptr %2, align 8
  store i32 1, ptr %6, align 4
  br label %29

18:                                               ; preds = %1
  %19 = load ptr, ptr %5, align 8, !tbaa !17
  %20 = getelementptr inbounds nuw %struct.CalloutListEntry, ptr %19, i32 0, i32 1
  %21 = load i32, ptr %20, align 4, !tbaa !214
  %22 = icmp eq i32 %21, 0
  br i1 %22, label %23, label %28

23:                                               ; preds = %18
  %24 = load ptr, ptr %5, align 8, !tbaa !17
  %25 = getelementptr inbounds nuw %struct.CalloutListEntry, ptr %24, i32 0, i32 9
  %26 = getelementptr inbounds nuw %struct.anon.1, ptr %25, i32 0, i32 0
  %27 = load ptr, ptr %26, align 8, !tbaa !59
  store ptr %27, ptr %2, align 8
  store i32 1, ptr %6, align 4
  br label %29

28:                                               ; preds = %18
  store ptr null, ptr %2, align 8
  store i32 1, ptr %6, align 4
  br label %29

29:                                               ; preds = %28, %23, %17
  call void @llvm.lifetime.end.p0(i64 8, ptr %5) #9
  call void @llvm.lifetime.end.p0(i64 4, ptr %4) #9
  %30 = load ptr, ptr %2, align 8
  ret ptr %30
}